target datalayout = "e-m:e-p270:32:32-p271:32:32-p272:64:64-i64:64-i128:128-f80:128-n8:16:32:64-S128"
target triple = "x86_64-pc-linux-gnu"

%class.Sample_Debug = type <{ %class.Sample, ptr, ptr, ptr, [3 x float], [3 x float], [3 x float], [3 x float], i32, [4 x i8] }>
%class.Sample = type { ptr, ptr, ptr, ptr, ptr, i8, float, float, float, float, float, float, float, float, float, float, float, float, float, i32, i8, i8, i8, ptr, [9 x ptr], ptr, %class.SampleDebugDraw }
%class.SampleDebugDraw = type { %class.DebugDrawGL }
%class.DebugDrawGL = type { %struct.duDebugDraw }
%struct.duDebugDraw = type { ptr }

@.str.5 = private unnamed_addr constant [39 x i8] c"buildNavigation: Out of memory 'cset'.\00", align 1
@.str.6 = private unnamed_addr constant [44 x i8] c"buildNavigation: Could not create contours.\00", align 1

; Function Attrs: mustprogress uwtable
define dso_local noundef zeroext i1 @_ZN12Sample_Debug11handleBuildEv(ptr noundef nonnull align 8 dereferenceable(276) %0) unnamed_addr #0 align 2 {
  %2 = alloca i1, align 1
  %3 = alloca ptr, align 8
  store ptr %0, ptr %3, align 8
  %4 = load ptr, ptr %3, align 8
  %5 = getelementptr inbounds %class.Sample_Debug, ptr %4, i32 0, i32 1
  %6 = load ptr, ptr %5, align 8
  %7 = icmp ne ptr %6, null
  br i1 %7, label %8, label %32

8:                                                ; preds = %1
  %9 = getelementptr inbounds %class.Sample_Debug, ptr %4, i32 0, i32 2
  %10 = load ptr, ptr %9, align 8
  call void @_Z16rcFreeContourSetP12rcContourSet(ptr noundef %10)
  %11 = getelementptr inbounds %class.Sample_Debug, ptr %4, i32 0, i32 2
  store ptr null, ptr %11, align 8
  %12 = call noundef ptr @_Z17rcAllocContourSetv()
  %13 = getelementptr inbounds %class.Sample_Debug, ptr %4, i32 0, i32 2
  store ptr %12, ptr %13, align 8
  %14 = getelementptr inbounds %class.Sample_Debug, ptr %4, i32 0, i32 2
  %15 = load ptr, ptr %14, align 8
  %16 = icmp ne ptr %15, null
  br i1 %16, label %20, label %17

17:                                               ; preds = %8
  %18 = getelementptr inbounds %class.Sample, ptr %4, i32 0, i32 25
  %19 = load ptr, ptr %18, align 8
  call void (ptr, i32, ptr, ...) @_ZN9rcContext3logE13rcLogCategoryPKcz(ptr noundef nonnull align 8 dereferenceable(10) %19, i32 noundef 3, ptr noundef @.str.5)
  store i1 false, ptr %2, align 1
  br label %33

20:                                               ; preds = %8
  %21 = getelementptr inbounds %class.Sample, ptr %4, i32 0, i32 25
  %22 = load ptr, ptr %21, align 8
  %23 = getelementptr inbounds %class.Sample_Debug, ptr %4, i32 0, i32 1
  %24 = load ptr, ptr %23, align 8
  %25 = getelementptr inbounds %class.Sample_Debug, ptr %4, i32 0, i32 2
  %26 = load ptr, ptr %25, align 8
  %27 = call noundef zeroext i1 @_Z15rcBuildContoursP9rcContextRK20rcCompactHeightfieldfiR12rcContourSeti(ptr noundef %22, ptr noundef nonnull align 8 dereferenceable(96) %24, float noundef 0x3FF4CCCCC0000000, i32 noundef 12, ptr noundef nonnull align 8 dereferenceable(60) %26, i32 noundef 1)
  br i1 %27, label %31, label %28

28:                                               ; preds = %20
  %29 = getelementptr inbounds %class.Sample, ptr %4, i32 0, i32 25
  %30 = load ptr, ptr %29, align 8
  call void (ptr, i32, ptr, ...) @_ZN9rcContext3logE13rcLogCategoryPKcz(ptr noundef nonnull align 8 dereferenceable(10) %30, i32 noundef 3, ptr noundef @.str.6)
  store i1 false, ptr %2, align 1
  br label %33

31:                                               ; preds = %20
  br label %32

32:                                               ; preds = %31, %1
  store i1 true, ptr %2, align 1
  br label %33

33:                                               ; preds = %32, %28, %17
  %34 = load i1, ptr %2, align 1
  ret i1 %34
}