; Function Attrs: mustprogress uwtable
define dso_local noundef zeroext i1 @_ZN12Sample_Debug11handleBuildEv(ptr nocapture noundef nonnull align 8 dereferenceable(276) %0) unnamed_addr #0 align 2 {
  %2 = getelementptr inbounds i8, ptr %0, i64 200
  %3 = load ptr, ptr %2, align 8
  %.not = icmp eq ptr %3, null
  br i1 %.not, label %16, label %4

4:                                                ; preds = %1
  %5 = getelementptr inbounds i8, ptr %0, i64 208
  %6 = load ptr, ptr %5, align 8
  tail call void @_Z16rcFreeContourSetP12rcContourSet(ptr noundef %6)
  store ptr null, ptr %5, align 8
  %7 = tail call noundef ptr @_Z17rcAllocContourSetv()
  store ptr %7, ptr %5, align 8
  %.not3 = icmp eq ptr %7, null
  %8 = getelementptr inbounds i8, ptr %0, i64 184
  %9 = load ptr, ptr %8, align 8
  br i1 %.not3, label %10, label %11

10:                                               ; preds = %4
  tail call void (ptr, i32, ptr, ...) @_ZN9rcContext3logE13rcLogCategoryPKcz(ptr noundef nonnull align 8 dereferenceable(10) %9, i32 noundef 3, ptr noundef nonnull @.str.5)
  br label %16

11:                                               ; preds = %4
  %12 = load ptr, ptr %2, align 8
  %13 = tail call noundef zeroext i1 @_Z15rcBuildContoursP9rcContextRK20rcCompactHeightfieldfiR12rcContourSeti(ptr noundef %9, ptr noundef nonnull align 8 dereferenceable(96) %12, float noundef 0x3FF4CCCCC0000000, i32 noundef 12, ptr noundef nonnull align 8 dereferenceable(60) %7, i32 noundef 1)
  br i1 %13, label %16, label %14

14:                                               ; preds = %11
  %15 = load ptr, ptr %8, align 8
  tail call void (ptr, i32, ptr, ...) @_ZN9rcContext3logE13rcLogCategoryPKcz(ptr noundef nonnull align 8 dereferenceable(10) %15, i32 noundef 3, ptr noundef nonnull @.str.6)
  br label %16

16:                                               ; preds = %1, %11, %14, %10
  %.0 = phi i1 [ false, %14 ], [ false, %10 ], [ true, %11 ], [ true, %1 ]
  ret i1 %.0
}